target datalayout = "e-m:e-p270:32:32-p271:32:32-p272:64:64-i64:64-i128:128-f80:128-n8:16:32:64-S128"
target triple = "x86_64-pc-linux-gnu"

; Function Attrs: nounwind uwtable
define i32 @av_strstart(ptr noundef %0, ptr noundef %1, ptr noundef %2) #0 {
  %4 = alloca ptr, align 8
  %5 = alloca ptr, align 8
  %6 = alloca ptr, align 8
  store ptr %0, ptr %4, align 8, !tbaa !4
  store ptr %1, ptr %5, align 8, !tbaa !4
  store ptr %2, ptr %6, align 8, !tbaa !9
  br label %7

7:                                                ; preds = %22, %3
  %8 = load ptr, ptr %5, align 8, !tbaa !4
  %9 = load i8, ptr %8, align 1, !tbaa !12
  %10 = sext i8 %9 to i32
  %11 = icmp ne i32 %10, 0
  br i1 %11, label %12, label %20

12:                                               ; preds = %7
  %13 = load ptr, ptr %5, align 8, !tbaa !4
  %14 = load i8, ptr %13, align 1, !tbaa !12
  %15 = sext i8 %14 to i32
  %16 = load ptr, ptr %4, align 8, !tbaa !4
  %17 = load i8, ptr %16, align 1, !tbaa !12
  %18 = sext i8 %17 to i32
  %19 = icmp eq i32 %15, %18
  br label %20

20:                                               ; preds = %12, %7
  %21 = phi i1 [ false, %7 ], [ %19, %12 ]
  br i1 %21, label %22, label %27

22:                                               ; preds = %20
  %23 = load ptr, ptr %5, align 8, !tbaa !4
  %24 = getelementptr inbounds nuw i8, ptr %23, i32 1
  store ptr %24, ptr %5, align 8, !tbaa !4
  %25 = load ptr, ptr %4, align 8, !tbaa !4
  %26 = getelementptr inbounds nuw i8, ptr %25, i32 1
  store ptr %26, ptr %4, align 8, !tbaa !4
  br label %7, !llvm.loop !13

27:                                               ; preds = %20
  %28 = load ptr, ptr %5, align 8, !tbaa !4
  %29 = load i8, ptr %28, align 1, !tbaa !12
  %30 = icmp ne i8 %29, 0
  br i1 %30, label %37, label %31

31:                                               ; preds = %27
  %32 = load ptr, ptr %6, align 8, !tbaa !9
  %33 = icmp ne ptr %32, null
  br i1 %33, label %34, label %37

34:                                               ; preds = %31
  %35 = load ptr, ptr %4, align 8, !tbaa !4
  %36 = load ptr, ptr %6, align 8, !tbaa !9
  store ptr %35, ptr %36, align 8, !tbaa !4
  br label %37

37:                                               ; preds = %34, %31, %27
  %38 = load ptr, ptr %5, align 8, !tbaa !4
  %39 = load i8, ptr %38, align 1, !tbaa !12
  %40 = icmp ne i8 %39, 0
  %41 = xor i1 %40, true
  %42 = zext i1 %41 to i32
  ret i32 %42
}