; Function Attrs: nofree norecurse nosync nounwind memory(argmem: readwrite) uwtable
define range(i32 0, 2) i32 @av_strstart(ptr noundef %0, ptr noundef readonly captures(none) %1, ptr noundef writeonly captures(address_is_null) %2) local_unnamed_addr #0 {
  %4 = load i8, ptr %1, align 1, !tbaa !4
  %.not20 = icmp eq i8 %4, 0
  br i1 %.not20, label %.critedge, label %.lr.ph

.lr.ph:                                           ; preds = %3, %8
  %5 = phi i8 [ %11, %8 ], [ %4, %3 ]
  %.022 = phi ptr [ %10, %8 ], [ %0, %3 ]
  %.01121 = phi ptr [ %9, %8 ], [ %1, %3 ]
  %6 = load i8, ptr %.022, align 1, !tbaa !4
  %7 = icmp eq i8 %5, %6
  br i1 %7, label %8, label %.critedge.thread

8:                                                ; preds = %.lr.ph
  %9 = getelementptr inbounds nuw i8, ptr %.01121, i64 1
  %10 = getelementptr inbounds nuw i8, ptr %.022, i64 1
  %11 = load i8, ptr %9, align 1, !tbaa !4
  %.not = icmp eq i8 %11, 0
  br i1 %.not, label %.critedge, label %.lr.ph, !llvm.loop !7

.critedge:                                        ; preds = %8, %3
  %.011.lcssa = phi ptr [ %1, %3 ], [ %9, %8 ]
  %.0.lcssa = phi ptr [ %0, %3 ], [ %10, %8 ]
  %.not16 = icmp eq ptr %2, null
  br i1 %.not16, label %.critedge.thread, label %12

12:                                               ; preds = %.critedge
  store ptr %.0.lcssa, ptr %2, align 8, !tbaa !9
  %.pre = load i8, ptr %.011.lcssa, align 1, !tbaa !4
  %13 = icmp eq i8 %.pre, 0
  %14 = zext i1 %13 to i32
  br label %.critedge.thread

.critedge.thread:                                 ; preds = %.lr.ph, %12, %.critedge
  %.not14 = phi i32 [ %14, %12 ], [ 1, %.critedge ], [ 0, %.lr.ph ]
  ret i32 %.not14
}